; Function Attrs: mustprogress nounwind uwtable
define noundef nonnull align 8 dereferenceable(16) ptr @_ZN6icu_776number4impl14SymbolsWrapperaSEOS2_(ptr noundef nonnull returned align 8 dereferenceable(16) %0, ptr noundef nonnull align 8 dereferenceable(16) %1) local_unnamed_addr #0 align 2 personality ptr @__gxx_personality_v0 {
  %3 = icmp eq ptr %0, %1
  br i1 %3, label %_ZN6icu_776number4impl14SymbolsWrapper10doMoveFromEOS2_.exit, label %4

4:                                                ; preds = %2
  %5 = load i32, ptr %0, align 8, !tbaa !15
  switch i32 %5, label %_ZN6icu_776number4impl14SymbolsWrapper9doCleanupEv.exit [
    i32 2, label %10
    i32 1, label %6
  ]

6:                                                ; preds = %4
  %7 = getelementptr inbounds nuw i8, ptr %0, i64 8
  %8 = load ptr, ptr %7, align 8, !tbaa !18
  %9 = icmp eq ptr %8, null
  br i1 %9, label %_ZN6icu_776number4impl14SymbolsWrapper9doCleanupEv.exit, label %.sink.split.i

10:                                               ; preds = %4
  %11 = getelementptr inbounds nuw i8, ptr %0, i64 8
  %12 = load ptr, ptr %11, align 8, !tbaa !18
  %13 = icmp eq ptr %12, null
  br i1 %13, label %_ZN6icu_776number4impl14SymbolsWrapper9doCleanupEv.exit, label %.sink.split.i

.sink.split.i:                                    ; preds = %10, %6
  %.sink5.i = phi ptr [ %8, %6 ], [ %12, %10 ]
  %14 = load ptr, ptr %.sink5.i, align 8, !tbaa !19
  %15 = getelementptr inbounds nuw i8, ptr %14, i64 8
  %16 = load ptr, ptr %15, align 8
  tail call void %16(ptr noundef nonnull align 8 dereferenceable(86) %.sink5.i) #13
  br label %_ZN6icu_776number4impl14SymbolsWrapper9doCleanupEv.exit

_ZN6icu_776number4impl14SymbolsWrapper9doCleanupEv.exit: ; preds = %4, %6, %10, %.sink.split.i
  %17 = load i32, ptr %1, align 8, !tbaa !15
  store i32 %17, ptr %0, align 8, !tbaa !15
  %.off.i = add i32 %17, -1
  %switch.i = icmp ult i32 %.off.i, 2
  br i1 %switch.i, label %.sink.split.i5, label %_ZN6icu_776number4impl14SymbolsWrapper10doMoveFromEOS2_.exit

.sink.split.i5:                                   ; preds = %_ZN6icu_776number4impl14SymbolsWrapper9doCleanupEv.exit
  %18 = getelementptr inbounds nuw i8, ptr %1, i64 8
  %19 = load ptr, ptr %18, align 8, !tbaa !18
  %20 = getelementptr inbounds nuw i8, ptr %0, i64 8
  store ptr %19, ptr %20, align 8, !tbaa !18
  store ptr null, ptr %18, align 8, !tbaa !18
  br label %_ZN6icu_776number4impl14SymbolsWrapper10doMoveFromEOS2_.exit

_ZN6icu_776number4impl14SymbolsWrapper10doMoveFromEOS2_.exit: ; preds = %.sink.split.i5, %_ZN6icu_776number4impl14SymbolsWrapper9doCleanupEv.exit, %2
  ret ptr %0
}